; Function Attrs: nounwind uwtable
define hidden zeroext i1 @SDL_SetStringProperty_REAL(i32 noundef %0, ptr noundef %1, ptr noundef %2) local_unnamed_addr #0 {
  %.not = icmp eq ptr %2, null
  br i1 %.not, label %4, label %6

4:                                                ; preds = %3
  %5 = tail call fastcc zeroext i1 @SDL_PrivateSetProperty(i32 noundef %0, ptr noundef %1, ptr noundef null)
  br label %14

6:                                                ; preds = %3
  %7 = tail call noalias dereferenceable_or_null(40) ptr @SDL_calloc_REAL(i64 noundef 1, i64 noundef 40) #7
  %.not14 = icmp eq ptr %7, null
  br i1 %.not14, label %14, label %8

8:                                                ; preds = %6
  store i32 2, ptr %7, align 8
  %9 = tail call noalias ptr @SDL_strdup_REAL(ptr noundef nonnull %2) #6
  %10 = getelementptr inbounds nuw i8, ptr %7, i64 8
  store ptr %9, ptr %10, align 8
  %.not15 = icmp eq ptr %9, null
  br i1 %.not15, label %11, label %12

11:                                               ; preds = %8
  tail call void @SDL_free_REAL(ptr noundef nonnull %7) #6
  br label %14

12:                                               ; preds = %8
  %13 = tail call fastcc zeroext i1 @SDL_PrivateSetProperty(i32 noundef %0, ptr noundef %1, ptr noundef nonnull %7)
  br label %14

14:                                               ; preds = %6, %12, %11, %4
  %.0 = phi i1 [ %13, %12 ], [ false, %11 ], [ %5, %4 ], [ false, %6 ]
  ret i1 %.0
}